; Function Attrs: nofree nounwind uwtable
define void @Iso_ManPrintClasseSizes(ptr noundef readonly captures(none) %0) local_unnamed_addr #14 {
  %2 = getelementptr inbounds nuw i8, ptr %0, i64 56
  %3 = load ptr, ptr %2, align 8, !tbaa !49
  %4 = getelementptr i8, ptr %3, i64 4
  %.val16 = load i32, ptr %4, align 4, !tbaa !38
  %5 = icmp sgt i32 %.val16, 0
  br i1 %5, label %.lr.ph19, label %.critedge

.lr.ph19:                                         ; preds = %1
  %6 = getelementptr inbounds nuw i8, ptr %0, i64 8
  br label %7

7:                                                ; preds = %.lr.ph19, %._crit_edge
  %indvars.iv = phi i64 [ 0, %.lr.ph19 ], [ %indvars.iv.next, %._crit_edge ]
  %8 = phi ptr [ %3, %.lr.ph19 ], [ %22, %._crit_edge ]
  %9 = getelementptr i8, ptr %8, i64 8
  %.val12 = load ptr, ptr %9, align 8, !tbaa !47
  %10 = getelementptr inbounds nuw ptr, ptr %.val12, i64 %indvars.iv
  %11 = load ptr, ptr %10, align 8, !tbaa !67
  %.not13 = icmp eq ptr %11, null
  br i1 %.not13, label %._crit_edge, label %.lr.ph.preheader

.lr.ph.preheader:                                 ; preds = %7
  %12 = getelementptr inbounds nuw i8, ptr %11, i64 16
  %13 = load i32, ptr %12, align 4, !tbaa !65
  %.not.i22 = icmp eq i32 %13, 0
  br i1 %.not.i22, label %._crit_edge, label %Iso_ManObj.exit.preheader

Iso_ManObj.exit.preheader:                        ; preds = %.lr.ph.preheader
  %14 = load ptr, ptr %6, align 8, !tbaa !41
  br label %Iso_ManObj.exit

Iso_ManObj.exit:                                  ; preds = %Iso_ManObj.exit.preheader, %Iso_ManObj.exit
  %15 = phi i32 [ %20, %Iso_ManObj.exit ], [ %13, %Iso_ManObj.exit.preheader ]
  %16 = phi i32 [ %18, %Iso_ManObj.exit ], [ 1, %Iso_ManObj.exit.preheader ]
  %17 = sext i32 %15 to i64
  %18 = add nuw nsw i32 %16, 1
  %19 = getelementptr inbounds %struct.Iso_Obj_t_, ptr %14, i64 %17, i32 4
  %20 = load i32, ptr %19, align 4, !tbaa !65
  %.not.i = icmp eq i32 %20, 0
  br i1 %.not.i, label %._crit_edge, label %Iso_ManObj.exit, !llvm.loop !93

._crit_edge:                                      ; preds = %Iso_ManObj.exit, %.lr.ph.preheader, %7
  %.0.lcssa = phi i32 [ 0, %7 ], [ 1, %.lr.ph.preheader ], [ %18, %Iso_ManObj.exit ]
  %21 = tail call i32 (ptr, ...) @printf(ptr noundef nonnull dereferenceable(1) @.str.13, i32 noundef %.0.lcssa)
  %indvars.iv.next = add nuw nsw i64 %indvars.iv, 1
  %22 = load ptr, ptr %2, align 8, !tbaa !49
  %23 = getelementptr i8, ptr %22, i64 4
  %.val = load i32, ptr %23, align 4, !tbaa !38
  %24 = sext i32 %.val to i64
  %25 = icmp slt i64 %indvars.iv.next, %24
  br i1 %25, label %7, label %.critedge, !llvm.loop !94

.critedge:                                        ; preds = %._crit_edge, %1
  %putchar = tail call i32 @putchar(i32 10)
  ret void
}